; Function Attrs: mustprogress uwtable
define void @_ZN4LIEF3DEX5ClassC2Ev(ptr noundef nonnull align 8 dereferenceable(140) %0) unnamed_addr #0 align 2 {
  tail call void @_ZN4LIEF6ObjectC2Ev(ptr noundef nonnull align 8 dereferenceable(8) %0)
  store ptr getelementptr inbounds ({ [7 x ptr] }, ptr @_ZTVN4LIEF3DEX5ClassE, i64 0, i32 0, i64 2), ptr %0, align 8
  %2 = getelementptr inbounds i8, ptr %0, i64 8
  tail call void @_ZNSt7__cxx1112basic_stringIcSt11char_traitsIcESaIcEEC1Ev(ptr noundef nonnull align 8 dereferenceable(32) %2) #17
  %3 = getelementptr inbounds i8, ptr %0, i64 40
  store i32 0, ptr %3, align 8
  %4 = getelementptr inbounds i8, ptr %0, i64 48
  %5 = getelementptr inbounds i8, ptr %0, i64 104
  tail call void @llvm.memset.p0.i64(ptr noundef nonnull align 8 dereferenceable(56) %4, i8 0, i64 56, i1 false)
  tail call void @_ZNSt7__cxx1112basic_stringIcSt11char_traitsIcESaIcEEC1Ev(ptr noundef nonnull align 8 dereferenceable(32) %5) #17
  %6 = getelementptr inbounds i8, ptr %0, i64 136
  store i32 -1, ptr %6, align 8
  ret void
}